target datalayout = "e-m:e-p270:32:32-p271:32:32-p272:64:64-i64:64-i128:128-f80:128-n8:16:32:64-S128"
target triple = "x86_64-pc-linux-gnu"

%struct.global_State = type { ptr, ptr, %struct.GCState, %struct.GCstr, i8, i8, i8, i8, %struct.StrInternState, i32, %struct.GCRef, %struct.SBuf, %union.TValue, %union.TValue, %struct.Node, %union.TValue, %struct.GCupval, i32, i32, ptr, ptr, ptr, i32, i32, %struct.GCRef, %struct.MRef, %struct.MRef, %struct.PRNGState, [39 x %struct.GCRef] }
%struct.GCState = type { i64, i64, i8, i8, i8, i8, i32, %struct.GCRef, %struct.MRef, %struct.GCRef, %struct.GCRef, %struct.GCRef, %struct.GCRef, i64, i64, i32, i32, %struct.MRef }
%struct.GCstr = type { %struct.GCRef, i8, i8, i8, i8, i32, i32, i32 }
%struct.StrInternState = type { ptr, i32, i32, i32, i8, i8, i8, i8, i64 }
%struct.SBuf = type { ptr, ptr, ptr, %struct.MRef }
%struct.Node = type { %union.TValue, %union.TValue, %struct.MRef }
%union.TValue = type { i64 }
%struct.GCupval = type { %struct.GCRef, i8, i8, i8, i8, %union.anon, %struct.MRef, i32 }
%union.anon = type { %struct.anon.1 }
%struct.anon.1 = type { %struct.GCRef, %struct.GCRef }
%struct.GCRef = type { i64 }
%struct.MRef = type { i64 }
%struct.PRNGState = type { [4 x i64] }
%struct.GChead = type { %struct.GCRef, i8, i8, i8, i8, %struct.GCRef, %struct.GCRef, %struct.GCRef }

; Function Attrs: nounwind uwtable
define internal void @gc_sweepstr(ptr noundef %0, ptr noundef %1) #0 {
  %3 = alloca ptr, align 8
  %4 = alloca ptr, align 8
  %5 = alloca i32, align 4
  %6 = alloca i64, align 8
  %7 = alloca %struct.GCRef, align 8
  %8 = alloca ptr, align 8
  %9 = alloca ptr, align 8
  store ptr %0, ptr %3, align 8, !tbaa !4
  store ptr %1, ptr %4, align 8, !tbaa !26
  call void @llvm.lifetime.start.p0(i64 4, ptr %5) #7
  %10 = load ptr, ptr %3, align 8, !tbaa !4
  %11 = getelementptr inbounds nuw %struct.global_State, ptr %10, i32 0, i32 2
  %12 = getelementptr inbounds nuw %struct.GCState, ptr %11, i32 0, i32 2
  %13 = load i8, ptr %12, align 8, !tbaa !44
  %14 = zext i8 %13 to i32
  %15 = xor i32 %14, 3
  store i32 %15, ptr %5, align 4, !tbaa !9
  call void @llvm.lifetime.start.p0(i64 8, ptr %6) #7
  %16 = load ptr, ptr %4, align 8, !tbaa !26
  %17 = getelementptr inbounds nuw %struct.GCRef, ptr %16, i32 0, i32 0
  %18 = load i64, ptr %17, align 8, !tbaa !27
  store i64 %18, ptr %6, align 8, !tbaa !11
  call void @llvm.lifetime.start.p0(i64 8, ptr %7) #7
  call void @llvm.lifetime.start.p0(i64 8, ptr %8) #7
  store ptr %7, ptr %8, align 8, !tbaa !26
  call void @llvm.lifetime.start.p0(i64 8, ptr %9) #7
  %19 = load i64, ptr %6, align 8, !tbaa !11
  %20 = and i64 %19, -2
  %21 = getelementptr inbounds nuw %struct.GCRef, ptr %7, i32 0, i32 0
  store i64 %20, ptr %21, align 8, !tbaa !27
  br label %22

22:                                               ; preds = %64, %2
  %23 = load ptr, ptr %8, align 8, !tbaa !26
  %24 = getelementptr inbounds nuw %struct.GCRef, ptr %23, i32 0, i32 0
  %25 = load i64, ptr %24, align 8, !tbaa !27
  %26 = inttoptr i64 %25 to ptr
  store ptr %26, ptr %9, align 8, !tbaa !28
  %27 = icmp ne ptr %26, null
  br i1 %27, label %28, label %65

28:                                               ; preds = %22
  %29 = load ptr, ptr %9, align 8, !tbaa !28
  %30 = getelementptr inbounds nuw %struct.GChead, ptr %29, i32 0, i32 1
  %31 = load i8, ptr %30, align 8, !tbaa !30
  %32 = zext i8 %31 to i32
  %33 = xor i32 %32, 3
  %34 = load i32, ptr %5, align 4, !tbaa !9
  %35 = and i32 %33, %34
  %36 = icmp ne i32 %35, 0
  br i1 %36, label %37, label %55

37:                                               ; preds = %28
  %38 = load ptr, ptr %9, align 8, !tbaa !28
  %39 = getelementptr inbounds nuw %struct.GChead, ptr %38, i32 0, i32 1
  %40 = load i8, ptr %39, align 8, !tbaa !30
  %41 = zext i8 %40 to i32
  %42 = and i32 %41, 248
  %43 = load ptr, ptr %3, align 8, !tbaa !4
  %44 = getelementptr inbounds nuw %struct.global_State, ptr %43, i32 0, i32 2
  %45 = getelementptr inbounds nuw %struct.GCState, ptr %44, i32 0, i32 2
  %46 = load i8, ptr %45, align 8, !tbaa !44
  %47 = zext i8 %46 to i32
  %48 = and i32 %47, 3
  %49 = or i32 %42, %48
  %50 = trunc i32 %49 to i8
  %51 = load ptr, ptr %9, align 8, !tbaa !28
  %52 = getelementptr inbounds nuw %struct.GChead, ptr %51, i32 0, i32 1
  store i8 %50, ptr %52, align 8, !tbaa !30
  %53 = load ptr, ptr %9, align 8, !tbaa !28
  %54 = getelementptr inbounds nuw %struct.GChead, ptr %53, i32 0, i32 0
  store ptr %54, ptr %8, align 8, !tbaa !26
  br label %64

55:                                               ; preds = %28
  %56 = load ptr, ptr %9, align 8, !tbaa !28
  %57 = getelementptr inbounds nuw %struct.GChead, ptr %56, i32 0, i32 0
  %58 = getelementptr inbounds nuw %struct.GCRef, ptr %57, i32 0, i32 0
  %59 = load i64, ptr %58, align 8, !tbaa !30
  %60 = load ptr, ptr %8, align 8, !tbaa !26
  %61 = getelementptr inbounds nuw %struct.GCRef, ptr %60, i32 0, i32 0
  store i64 %59, ptr %61, align 8, !tbaa !27
  %62 = load ptr, ptr %3, align 8, !tbaa !4
  %63 = load ptr, ptr %9, align 8, !tbaa !28
  call void @lj_str_free(ptr noundef %62, ptr noundef %63)
  br label %64

64:                                               ; preds = %55, %37
  br label %22, !llvm.loop !79

65:                                               ; preds = %22
  %66 = getelementptr inbounds nuw %struct.GCRef, ptr %7, i32 0, i32 0
  %67 = load i64, ptr %66, align 8, !tbaa !27
  %68 = load i64, ptr %6, align 8, !tbaa !11
  %69 = and i64 %68, 1
  %70 = or i64 %67, %69
  %71 = load ptr, ptr %4, align 8, !tbaa !26
  %72 = getelementptr inbounds nuw %struct.GCRef, ptr %71, i32 0, i32 0
  store i64 %70, ptr %72, align 8, !tbaa !27
  call void @llvm.lifetime.end.p0(i64 8, ptr %9) #7
  call void @llvm.lifetime.end.p0(i64 8, ptr %8) #7
  call void @llvm.lifetime.end.p0(i64 8, ptr %7) #7
  call void @llvm.lifetime.end.p0(i64 8, ptr %6) #7
  call void @llvm.lifetime.end.p0(i64 4, ptr %5) #7
  ret void
}

; Function Attrs: nounwind uwtable
define hidden void @lj_gc_freeall(ptr noundef %0) #0 {
  %2 = alloca ptr, align 8
  %3 = alloca i32, align 4
  store ptr %0, ptr %2, align 8, !tbaa !4
  call void @llvm.lifetime.start.p0(i64 4, ptr %3) #7
  %4 = load ptr, ptr %2, align 8, !tbaa !4
  %5 = getelementptr inbounds nuw %struct.global_State, ptr %4, i32 0, i32 2
  %6 = getelementptr inbounds nuw %struct.GCState, ptr %5, i32 0, i32 2
  store i8 67, ptr %6, align 8, !tbaa !44
  %7 = load ptr, ptr %2, align 8, !tbaa !4
  %8 = load ptr, ptr %2, align 8, !tbaa !4
  %9 = getelementptr inbounds nuw %struct.global_State, ptr %8, i32 0, i32 2
  %10 = getelementptr inbounds nuw %struct.GCState, ptr %9, i32 0, i32 7
  %11 = call ptr @gc_sweep(ptr noundef %7, ptr noundef %10, i32 noundef -1)
  %12 = load ptr, ptr %2, align 8, !tbaa !4
  %13 = getelementptr inbounds nuw %struct.global_State, ptr %12, i32 0, i32 8
  %14 = getelementptr inbounds nuw %struct.StrInternState, ptr %13, i32 0, i32 1
  %15 = load i32, ptr %14, align 8, !tbaa !74
  store i32 %15, ptr %3, align 4, !tbaa !9
  br label %16

16:                                               ; preds = %28, %1
  %17 = load i32, ptr %3, align 4, !tbaa !9
  %18 = icmp ne i32 %17, -1
  br i1 %18, label %19, label %31

19:                                               ; preds = %16
  %20 = load ptr, ptr %2, align 8, !tbaa !4
  %21 = load ptr, ptr %2, align 8, !tbaa !4
  %22 = getelementptr inbounds nuw %struct.global_State, ptr %21, i32 0, i32 8
  %23 = getelementptr inbounds nuw %struct.StrInternState, ptr %22, i32 0, i32 0
  %24 = load ptr, ptr %23, align 8, !tbaa !75
  %25 = load i32, ptr %3, align 4, !tbaa !9
  %26 = zext i32 %25 to i64
  %27 = getelementptr inbounds nuw %struct.GCRef, ptr %24, i64 %26
  call void @gc_sweepstr(ptr noundef %20, ptr noundef %27)
  br label %28

28:                                               ; preds = %19
  %29 = load i32, ptr %3, align 4, !tbaa !9
  %30 = add i32 %29, -1
  store i32 %30, ptr %3, align 4, !tbaa !9
  br label %16, !llvm.loop !76

31:                                               ; preds = %16
  call void @llvm.lifetime.end.p0(i64 4, ptr %3) #7
  ret void
}