; Function Attrs: nounwind uwtable
define hidden void @lj_gc_freeall(ptr noundef initializes((32, 33)) %0) local_unnamed_addr #0 {
  %.sroa.0.i = alloca i64, align 8
  %2 = getelementptr inbounds nuw i8, ptr %0, i64 32
  store i8 67, ptr %2, align 8, !tbaa !35
  %3 = getelementptr inbounds nuw i8, ptr %0, i64 40
  %4 = tail call fastcc ptr @gc_sweep(ptr noundef %0, ptr noundef nonnull %3, i32 noundef -1)
  %5 = getelementptr inbounds nuw i8, ptr %0, i64 152
  %6 = getelementptr inbounds nuw i8, ptr %0, i64 160
  %7 = load i32, ptr %6, align 8, !tbaa !60
  %.not8 = icmp eq i32 %7, -1
  br i1 %.not8, label %._crit_edge, label %.lr.ph.preheader

.lr.ph.preheader:                                 ; preds = %1
  %8 = zext i32 %7 to i64
  br label %.lr.ph

.lr.ph:                                           ; preds = %.lr.ph.preheader, %gc_sweepstr.exit
  %indvars.iv = phi i64 [ %8, %.lr.ph.preheader ], [ %indvars.iv.next, %gc_sweepstr.exit ]
  %9 = load ptr, ptr %5, align 8, !tbaa !61
  %10 = getelementptr inbounds nuw %struct.GCRef, ptr %9, i64 %indvars.iv
  %11 = load i8, ptr %2, align 8, !tbaa !35
  %12 = xor i8 %11, 3
  %13 = load i64, ptr %10, align 8, !tbaa !22
  call void @llvm.lifetime.start.p0(i64 8, ptr nonnull %.sroa.0.i)
  %14 = and i64 %13, -2
  store i64 %14, ptr %.sroa.0.i, align 8, !tbaa !22
  %.not17.i = icmp eq i64 %14, 0
  br i1 %.not17.i, label %gc_sweepstr.exit, label %.lr.ph.i

.lr.ph.i:                                         ; preds = %.lr.ph, %27
  %.in.i = phi i64 [ %.pr.i, %27 ], [ %14, %.lr.ph ]
  %.018.i = phi ptr [ %.1.i, %27 ], [ %.sroa.0.i, %.lr.ph ]
  %15 = inttoptr i64 %.in.i to ptr
  %16 = getelementptr inbounds nuw i8, ptr %15, i64 8
  %17 = load i8, ptr %16, align 8, !tbaa !23
  %18 = xor i8 %17, 3
  %19 = and i8 %18, %12
  %.not16.i = icmp eq i8 %19, 0
  br i1 %.not16.i, label %25, label %20

20:                                               ; preds = %.lr.ph.i
  %21 = and i8 %17, -8
  %22 = load i8, ptr %2, align 8, !tbaa !35
  %23 = and i8 %22, 3
  %24 = or disjoint i8 %23, %21
  store i8 %24, ptr %16, align 8, !tbaa !23
  br label %27

25:                                               ; preds = %.lr.ph.i
  %26 = load i64, ptr %15, align 8, !tbaa !23
  store i64 %26, ptr %.018.i, align 8, !tbaa !22
  tail call void @lj_str_free(ptr noundef %0, ptr noundef nonnull %15) #8
  br label %27

27:                                               ; preds = %25, %20
  %.1.i = phi ptr [ %15, %20 ], [ %.018.i, %25 ]
  %.pr.i = load i64, ptr %.1.i, align 8, !tbaa !22
  %.not.i = icmp eq i64 %.pr.i, 0
  br i1 %.not.i, label %._crit_edge.loopexit.i, label %.lr.ph.i, !llvm.loop !62

._crit_edge.loopexit.i:                           ; preds = %27
  %.sroa.0.i.0..sroa.0.i.0..sroa.0.i.0..sroa.0.0..sroa.0.0..sroa.0.0..sroa.0.0..pre.i = load i64, ptr %.sroa.0.i, align 8, !tbaa !22
  br label %gc_sweepstr.exit

gc_sweepstr.exit:                                 ; preds = %.lr.ph, %._crit_edge.loopexit.i
  %.sroa.0.0..sroa.0.0..sroa.0.0..sroa.0.0..i = phi i64 [ %.sroa.0.i.0..sroa.0.i.0..sroa.0.i.0..sroa.0.0..sroa.0.0..sroa.0.0..sroa.0.0..pre.i, %._crit_edge.loopexit.i ], [ 0, %.lr.ph ]
  %28 = and i64 %13, 1
  %29 = or i64 %.sroa.0.0..sroa.0.0..sroa.0.0..sroa.0.0..i, %28
  store i64 %29, ptr %10, align 8, !tbaa !22
  call void @llvm.lifetime.end.p0(i64 8, ptr nonnull %.sroa.0.i)
  %indvars.iv.next = add nsw i64 %indvars.iv, -1
  %.not = icmp eq i64 %indvars.iv, 0
  br i1 %.not, label %._crit_edge, label %.lr.ph, !llvm.loop !63

._crit_edge:                                      ; preds = %gc_sweepstr.exit, %1
  ret void
}